; Function Attrs: nounwind uwtable
define dso_local double @get_parameterized_baserel_size(ptr noundef %0, ptr noundef readonly captures(none) %1, ptr noundef %2) local_unnamed_addr #2 {
  %4 = getelementptr inbounds nuw i8, ptr %1, i64 296
  %5 = load ptr, ptr %4, align 8
  %6 = tail call ptr @list_concat_copy(ptr noundef %2, ptr noundef %5) #17
  %7 = getelementptr inbounds nuw i8, ptr %1, i64 200
  %8 = load double, ptr %7, align 8
  %9 = getelementptr inbounds nuw i8, ptr %1, i64 112
  %10 = load i32, ptr %9, align 8
  %11 = tail call double @clauselist_selectivity(ptr noundef %0, ptr noundef %6, i32 noundef %10, i32 noundef 0, ptr noundef null) #17
  %12 = fmul double %8, %11
  %13 = fcmp ogt double %12, 1.000000e+100
  %14 = fcmp uno double %12, 0.000000e+00
  %or.cond.i = or i1 %13, %14
  br i1 %or.cond.i, label %clamp_row_est.exit, label %15

15:                                               ; preds = %3
  %16 = fcmp ugt double %12, 1.000000e+00
  br i1 %16, label %17, label %clamp_row_est.exit

17:                                               ; preds = %15
  %18 = tail call double @llvm.rint.f64(double %12)
  br label %clamp_row_est.exit

clamp_row_est.exit:                               ; preds = %3, %15, %17
  %.0.i = phi double [ %18, %17 ], [ 1.000000e+100, %3 ], [ 1.000000e+00, %15 ]
  %19 = getelementptr inbounds nuw i8, ptr %1, i64 16
  %20 = load double, ptr %19, align 8
  %21 = fcmp ogt double %.0.i, %20
  %.0 = select i1 %21, double %20, double %.0.i
  ret double %.0
}